# SymbolsHelper-Confirmed: 0.7.0 amd64
libqt5keychain.so.1 libqt5keychain1 #MINVER#
 _ZN9QKeychain15ReadPasswordJob11qt_metacallEN11QMetaObject4CallEiPPv@Base 0.7.0
 _ZN9QKeychain15ReadPasswordJob11qt_metacastEPKc@Base 0.7.0
 _ZN9QKeychain15ReadPasswordJob16staticMetaObjectE@Base 0.7.0
 _ZN9QKeychain15ReadPasswordJobC1ERK7QStringP7QObject@Base 0.7.0
 _ZN9QKeychain15ReadPasswordJobC2ERK7QStringP7QObject@Base 0.7.0
 _ZN9QKeychain15ReadPasswordJobD0Ev@Base 0.7.0
 _ZN9QKeychain15ReadPasswordJobD1Ev@Base 0.7.0
 _ZN9QKeychain15ReadPasswordJobD2Ev@Base 0.7.0
 _ZN9QKeychain16WritePasswordJob11qt_metacallEN11QMetaObject4CallEiPPv@Base 0.7.0
 _ZN9QKeychain16WritePasswordJob11qt_metacastEPKc@Base 0.7.0
 _ZN9QKeychain16WritePasswordJob11setTextDataERK7QString@Base 0.7.0
 _ZN9QKeychain16WritePasswordJob13setBinaryDataERK10QByteArray@Base 0.7.0
 _ZN9QKeychain16WritePasswordJob16staticMetaObjectE@Base 0.7.0
 _ZN9QKeychain16WritePasswordJobC1ERK7QStringP7QObject@Base 0.7.0
 _ZN9QKeychain16WritePasswordJobC2ERK7QStringP7QObject@Base 0.7.0
 _ZN9QKeychain16WritePasswordJobD0Ev@Base 0.7.0
 _ZN9QKeychain16WritePasswordJobD1Ev@Base 0.7.0
 _ZN9QKeychain16WritePasswordJobD2Ev@Base 0.7.0
 _ZN9QKeychain17DeletePasswordJob11qt_metacallEN11QMetaObject4CallEiPPv@Base 0.7.0
 _ZN9QKeychain17DeletePasswordJob11qt_metacastEPKc@Base 0.7.0
 _ZN9QKeychain17DeletePasswordJob16staticMetaObjectE@Base 0.7.0
 _ZN9QKeychain17DeletePasswordJobC1ERK7QStringP7QObject@Base 0.7.0
 _ZN9QKeychain17DeletePasswordJobC2ERK7QStringP7QObject@Base 0.7.0
 _ZN9QKeychain17DeletePasswordJobD0Ev@Base 0.7.0
 _ZN9QKeychain17DeletePasswordJobD1Ev@Base 0.7.0
 _ZN9QKeychain17DeletePasswordJobD2Ev@Base 0.7.0
 _ZN9QKeychain3Job11qt_metacallEN11QMetaObject4CallEiPPv@Base 0.7.0
 _ZN9QKeychain3Job11qt_metacastEPKc@Base 0.7.0
 _ZN9QKeychain3Job11setSettingsEP9QSettings@Base 0.7.0
 _ZN9QKeychain3Job12emitFinishedEv@Base 0.7.0
 _ZN9QKeychain3Job13setAutoDeleteEb@Base 0.7.0
 _ZN9QKeychain3Job14scheduledStartEv@Base 0.7.0
 _ZN9QKeychain3Job14setErrorStringERK7QString@Base 0.7.0
 _ZN9QKeychain3Job16staticMetaObjectE@Base 0.7.0
 _ZN9QKeychain3Job19setInsecureFallbackEb@Base 0.7.0
 _ZN9QKeychain3Job21emitFinishedWithErrorENS_5ErrorERK7QString@Base 0.7.0
 _ZN9QKeychain3Job5startEv@Base 0.7.0
 _ZN9QKeychain3Job6setKeyERK7QString@Base 0.7.0
 _ZN9QKeychain3Job7doStartEv@Base 0.7.0
 _ZN9QKeychain3Job8finishedEPS0_@Base 0.7.0
 _ZN9QKeychain3Job8setErrorENS_5ErrorE@Base 0.7.0
 _ZN9QKeychain3JobC1EPNS_10JobPrivateEP7QObject@Base 0.7.0
 _ZN9QKeychain3JobC2EPNS_10JobPrivateEP7QObject@Base 0.7.0
 _ZN9QKeychain3JobD0Ev@Base 0.7.0
 _ZN9QKeychain3JobD1Ev@Base 0.7.0
 _ZN9QKeychain3JobD2Ev@Base 0.7.0
 _ZNK9QKeychain15ReadPasswordJob10binaryDataEv@Base 0.7.0
 _ZNK9QKeychain15ReadPasswordJob10metaObjectEv@Base 0.7.0
 _ZNK9QKeychain15ReadPasswordJob8textDataEv@Base 0.7.0
 _ZNK9QKeychain16WritePasswordJob10metaObjectEv@Base 0.7.0
 _ZNK9QKeychain17DeletePasswordJob10metaObjectEv@Base 0.7.0
 _ZNK9QKeychain3Job10autoDeleteEv@Base 0.7.0
 _ZNK9QKeychain3Job10metaObjectEv@Base 0.7.0
 _ZNK9QKeychain3Job11errorStringEv@Base 0.7.0
 _ZNK9QKeychain3Job16insecureFallbackEv@Base 0.7.0
 _ZNK9QKeychain3Job3keyEv@Base 0.7.0
 _ZNK9QKeychain3Job5errorEv@Base 0.7.0
 _ZNK9QKeychain3Job7serviceEv@Base 0.7.0
 _ZNK9QKeychain3Job8settingsEv@Base 0.7.0
 _ZTIN9QKeychain15ReadPasswordJobE@Base 0.7.0
 _ZTIN9QKeychain16WritePasswordJobE@Base 0.7.0
 _ZTIN9QKeychain17DeletePasswordJobE@Base 0.7.0
 _ZTIN9QKeychain3JobE@Base 0.7.0
 _ZTSN9QKeychain15ReadPasswordJobE@Base 0.7.0
 _ZTSN9QKeychain16WritePasswordJobE@Base 0.7.0
 _ZTSN9QKeychain17DeletePasswordJobE@Base 0.7.0
 _ZTSN9QKeychain3JobE@Base 0.7.0
 _ZTVN9QKeychain15ReadPasswordJobE@Base 0.7.0
 _ZTVN9QKeychain16WritePasswordJobE@Base 0.7.0
 _ZTVN9QKeychain17DeletePasswordJobE@Base 0.7.0
 _ZTVN9QKeychain3JobE@Base 0.7.0
